; Function Attrs: nofree norecurse nosync nounwind memory(read, argmem: readwrite, inaccessiblemem: none) uwtable
define internal void @vertical_compose_fidelityiH0_8bit(ptr noundef captures(none) %0, ptr noundef readonly captures(none) %1, i32 noundef %2) #4 {
  %4 = load ptr, ptr %1, align 8, !tbaa !22
  %5 = getelementptr inbounds nuw i8, ptr %1, i64 8
  %6 = load ptr, ptr %5, align 8, !tbaa !22
  %7 = getelementptr inbounds nuw i8, ptr %1, i64 16
  %8 = load ptr, ptr %7, align 8, !tbaa !22
  %9 = getelementptr inbounds nuw i8, ptr %1, i64 24
  %10 = load ptr, ptr %9, align 8, !tbaa !22
  %11 = getelementptr inbounds nuw i8, ptr %1, i64 32
  %12 = load ptr, ptr %11, align 8, !tbaa !22
  %13 = getelementptr inbounds nuw i8, ptr %1, i64 40
  %14 = load ptr, ptr %13, align 8, !tbaa !22
  %15 = getelementptr inbounds nuw i8, ptr %1, i64 48
  %16 = load ptr, ptr %15, align 8, !tbaa !22
  %17 = getelementptr inbounds nuw i8, ptr %1, i64 56
  %18 = load ptr, ptr %17, align 8, !tbaa !22
  %19 = icmp sgt i32 %2, 0
  br i1 %19, label %.lr.ph.preheader, label %._crit_edge

.lr.ph.preheader:                                 ; preds = %3
  %wide.trip.count = zext nneg i32 %2 to i64
  br label %.lr.ph

.lr.ph:                                           ; preds = %.lr.ph.preheader, %.lr.ph
  %indvars.iv = phi i64 [ 0, %.lr.ph.preheader ], [ %indvars.iv.next, %.lr.ph ]
  %20 = getelementptr inbounds nuw i16, ptr %0, i64 %indvars.iv
  %21 = load i16, ptr %20, align 2, !tbaa !39
  %22 = getelementptr inbounds nuw i16, ptr %4, i64 %indvars.iv
  %23 = load i16, ptr %22, align 2, !tbaa !39
  %24 = sext i16 %23 to i32
  %25 = getelementptr inbounds nuw i16, ptr %18, i64 %indvars.iv
  %26 = load i16, ptr %25, align 2, !tbaa !39
  %27 = sext i16 %26 to i32
  %28 = add nsw i32 %27, %24
  %29 = getelementptr inbounds nuw i16, ptr %6, i64 %indvars.iv
  %30 = load i16, ptr %29, align 2, !tbaa !39
  %31 = sext i16 %30 to i32
  %32 = getelementptr inbounds nuw i16, ptr %16, i64 %indvars.iv
  %33 = load i16, ptr %32, align 2, !tbaa !39
  %34 = sext i16 %33 to i32
  %35 = add nsw i32 %34, %31
  %36 = mul nsw i32 %35, 10
  %37 = getelementptr inbounds nuw i16, ptr %8, i64 %indvars.iv
  %38 = load i16, ptr %37, align 2, !tbaa !39
  %39 = sext i16 %38 to i32
  %40 = getelementptr inbounds nuw i16, ptr %14, i64 %indvars.iv
  %41 = load i16, ptr %40, align 2, !tbaa !39
  %42 = sext i16 %41 to i32
  %43 = add nsw i32 %42, %39
  %.neg = mul i32 %43, 16777191
  %44 = getelementptr inbounds nuw i16, ptr %10, i64 %indvars.iv
  %45 = load i16, ptr %44, align 2, !tbaa !39
  %46 = sext i16 %45 to i32
  %47 = getelementptr inbounds nuw i16, ptr %12, i64 %indvars.iv
  %48 = load i16, ptr %47, align 2, !tbaa !39
  %49 = sext i16 %48 to i32
  %50 = add nsw i32 %49, %46
  %51 = mul nsw i32 %50, 81
  %52 = shl nsw i32 %28, 1
  %reass.sub = sub nsw i32 %36, %52
  %53 = add nsw i32 %reass.sub, 128
  %54 = add i32 %53, %.neg
  %55 = add i32 %54, %51
  %56 = lshr i32 %55, 8
  %57 = trunc i32 %56 to i16
  %58 = add i16 %21, %57
  store i16 %58, ptr %20, align 2, !tbaa !39
  %indvars.iv.next = add nuw nsw i64 %indvars.iv, 1
  %exitcond.not = icmp eq i64 %indvars.iv.next, %wide.trip.count
  br i1 %exitcond.not, label %._crit_edge, label %.lr.ph, !llvm.loop !59

._crit_edge:                                      ; preds = %.lr.ph, %3
  ret void
}